target datalayout = "e-m:e-p270:32:32-p271:32:32-p272:64:64-i64:64-i128:128-f80:128-n8:16:32:64-S128"
target triple = "x86_64-pc-linux-gnu"

%struct.nistz256_pre_comp_st = type { ptr, i64, ptr, ptr, %struct.CRYPTO_REF_COUNT }
%struct.CRYPTO_REF_COUNT = type { i32 }

; Function Attrs: inlinehint nounwind uwtable
define internal i32 @CRYPTO_UP_REF(ptr noundef %0, ptr noundef %1) #2 {
  %3 = alloca ptr, align 8
  %4 = alloca ptr, align 8
  %5 = alloca i32, align 4
  %6 = alloca i32, align 4
  store ptr %0, ptr %3, align 8, !tbaa !8
  store ptr %1, ptr %4, align 8, !tbaa !9
  %7 = load ptr, ptr %3, align 8, !tbaa !8
  %8 = getelementptr inbounds nuw %struct.CRYPTO_REF_COUNT, ptr %7, i32 0, i32 0
  store i32 1, ptr %5, align 4, !tbaa !11
  %9 = load i32, ptr %5, align 4
  %10 = atomicrmw add ptr %8, i32 %9 monotonic, align 4
  store i32 %10, ptr %6, align 4
  %11 = load i32, ptr %6, align 4, !tbaa !11
  %12 = add nsw i32 %11, 1
  %13 = load ptr, ptr %4, align 8, !tbaa !9
  store i32 %12, ptr %13, align 4, !tbaa !11
  ret i32 1
}

; Function Attrs: nounwind uwtable
define ptr @EC_nistz256_pre_comp_dup(ptr noundef %0) #0 {
  %2 = alloca ptr, align 8
  %3 = alloca i32, align 4
  store ptr %0, ptr %2, align 8, !tbaa !3
  call void @llvm.lifetime.start.p0(i64 4, ptr %3) #6
  %4 = load ptr, ptr %2, align 8, !tbaa !3
  %5 = icmp ne ptr %4, null
  br i1 %5, label %6, label %10

6:                                                ; preds = %1
  %7 = load ptr, ptr %2, align 8, !tbaa !3
  %8 = getelementptr inbounds nuw %struct.nistz256_pre_comp_st, ptr %7, i32 0, i32 4
  %9 = call i32 @CRYPTO_UP_REF(ptr noundef %8, ptr noundef %3)
  br label %10

10:                                               ; preds = %6, %1
  %11 = load ptr, ptr %2, align 8, !tbaa !3
  call void @llvm.lifetime.end.p0(i64 4, ptr %3) #6
  ret ptr %11
}