; Function Attrs: mustprogress nofree norecurse nounwind willreturn memory(argmem: readwrite) uwtable
define noundef ptr @EC_nistz256_pre_comp_dup(ptr noundef returned captures(address_is_null, ret: address, provenance) %0) local_unnamed_addr #0 {
  %.not = icmp eq ptr %0, null
  br i1 %.not, label %5, label %2

2:                                                ; preds = %1
  %3 = getelementptr inbounds nuw i8, ptr %0, i64 32
  %4 = atomicrmw add ptr %3, i32 1 monotonic, align 4
  br label %5

5:                                                ; preds = %2, %1
  ret ptr %0
}